Certificate:
    Data:
        Version: 3 (0x2)
        Serial Number:
            1c:6a:a2:b8:7b:fb:83:46:b9:f3:99:9e:58:34:78:c4:39:21:fb:3e
        Signature Algorithm: ecdsa-with-SHA256
        Issuer: C=ES, ST=MA, L=Tres Cantos, O=eProsima, OU=eProsima, CN=eProsima Main Test CA/emailAddress=mainca@eprosima.com
        Validity
            Not Before: Mar 10 08:55:33 2021 GMT
            Not After : Mar  8 08:55:33 2031 GMT
        Subject: C=ES, ST=MA, O=eProsima, OU=eProsima, CN=Main Publisher/emailAddress=mainpub@eprosima.com
        Subject Public Key Info:
            Public Key Algorithm: id-ecPublicKey
                Public-Key: (256 bit)
                pub:
                    04:8b:2f:de:2d:c4:31:f1:31:06:b3:e3:63:fa:3f:
                    34:25:c8:b2:7c:29:50:44:02:ba:56:8a:9a:59:c2:
                    32:0c:44:53:f6:b0:7b:fd:ba:06:a7:19:0b:1e:02:
                    ed:63:af:b2:9d:93:6b:8c:a7:60:a5:f0:81:95:18:
                    a4:13:22:e3:1e
                ASN1 OID: prime256v1
                NIST CURVE: P-256
        X509v3 extensions:
            X509v3 Basic Constraints: 
                CA:FALSE
    Signature Algorithm: ecdsa-with-SHA256
         30:45:02:20:5f:6d:50:12:ef:17:8c:d4:e2:f5:e9:64:1c:64:
         68:00:d7:4c:43:2d:bb:ed:31:ce:f4:86:46:23:99:30:d4:83:
         02:21:00:cb:51:a9:b5:97:6d:35:c9:0a:41:61:78:67:b4:9e:
         9d:2a:82:26:bf:e4:26:70:a0:1b:9e:fd:11:17:c2:cc:46
-----BEGIN CERTIFICATE-----
MIICKDCCAc6gAwIBAgIUHGqiuHv7g0a585meWDR4xDkh+z4wCgYIKoZIzj0EAwIw
gZoxCzAJBgNVBAYTAkVTMQswCQYDVQQIDAJNQTEUMBIGA1UEBwwLVHJlcyBDYW50
b3MxETAPBgNVBAoMCGVQcm9zaW1hMREwDwYDVQQLDAhlUHJvc2ltYTEeMBwGA1UE
AwwVZVByb3NpbWEgTWFpbiBUZXN0IENBMSIwIAYJKoZIhvcNAQkBFhNtYWluY2FA
ZXByb3NpbWEuY29tMB4XDTIxMDMxMDA4NTUzM1oXDTMxMDMwODA4NTUzM1owfjEL
MAkGA1UEBhMCRVMxCzAJBgNVBAgMAk1BMREwDwYDVQQKDAhlUHJvc2ltYTERMA8G
A1UECwwIZVByb3NpbWExFzAVBgNVBAMMDk1haW4gUHVibGlzaGVyMSMwIQYJKoZI
hvcNAQkBFhRtYWlucHViQGVwcm9zaW1hLmNvbTBZMBMGByqGSM49AgEGCCqGSM49
AwEHA0IABIsv3i3EMfExBrPjY/o/NCXIsnwpUEQCulaKmlnCMgxEU/awe/26BqcZ
Cx4C7WOvsp2Ta4ynYKXwgZUYpBMi4x6jDTALMAkGA1UdEwQCMAAwCgYIKoZIzj0E
AwIDSAAwRQIgX21QEu8XjNTi9elkHGRoANdMQy277THO9IZGI5kw1IMCIQDLUam1
l201yQpBYXhntJ6dKoImv+QmcKAbnv0RF8LMRg==
-----END CERTIFICATE-----
