Certificate:
    Data:
        Version: 3 (0x2)
        Serial Number:
            1c:6a:a2:b8:7b:fb:83:46:b9:f3:99:9e:58:34:78:c4:39:21:fb:3f
        Signature Algorithm: ecdsa-with-SHA256
        Issuer: C=ES, ST=MA, L=Tres Cantos, O=eProsima, OU=eProsima, CN=eProsima Main Test CA/emailAddress=mainca@eprosima.com
        Validity
            Not Before: Jun 14 10:51:11 2023 GMT
            Not After : Jun 11 10:51:11 2033 GMT
        Subject: C=ES, ST=MA, O=eProsima, CN=DomainParticipantName/emailAddress=example@eprosima.com
        Subject Public Key Info:
            Public Key Algorithm: id-ecPublicKey
                Public-Key: (256 bit)
                pub:
                    04:5e:62:c2:b8:87:ca:1e:13:ff:5f:e3:5c:6b:c1:
                    b3:a2:25:6a:31:9a:63:03:07:7b:ff:85:f0:67:c0:
                    9f:67:f2:2c:fa:6b:13:95:f0:af:2d:bf:60:13:cc:
                    80:b9:ae:7e:b5:32:9c:fc:4a:c6:68:85:37:4c:33:
                    bd:e7:87:1e:d7
                ASN1 OID: prime256v1
                NIST CURVE: P-256
        X509v3 extensions:
            X509v3 Basic Constraints: 
                CA:FALSE
            X509v3 Subject Key Identifier: 
                B1:7C:BC:41:45:A2:57:FE:4C:FD:09:2B:22:E3:DF:47:66:F7:B3:96
            X509v3 Authority Key Identifier: 
                DirName:/C=ES/ST=MA/L=Tres Cantos/O=eProsima/OU=eProsima/CN=eProsima Main Test CA/emailAddress=mainca@eprosima.com
                serial:2D:E0:86:84:6B:94:F1:56:10:6C:66:9A:AE:9F:2F:39:47:B6:10:8E
    Signature Algorithm: ecdsa-with-SHA256
    Signature Value:
        30:45:02:21:00:fb:f0:07:b3:ee:0a:9f:1d:4b:7e:17:6f:23:
        4d:28:a6:9b:6d:b4:f0:1e:1b:7c:9f:fd:cc:c2:7e:e8:af:31:
        f3:02:20:6a:2b:5f:72:58:d4:0a:6f:02:b8:39:a3:e6:3e:c3:
        cb:3a:e4:1e:f8:38:19:89:cc:e2:80:f9:b4:32:5c:33:f7
-----BEGIN CERTIFICATE-----
MIIDBDCCAqqgAwIBAgIUHGqiuHv7g0a585meWDR4xDkh+z8wCgYIKoZIzj0EAwIw
gZoxCzAJBgNVBAYTAkVTMQswCQYDVQQIDAJNQTEUMBIGA1UEBwwLVHJlcyBDYW50
b3MxETAPBgNVBAoMCGVQcm9zaW1hMREwDwYDVQQLDAhlUHJvc2ltYTEeMBwGA1UE
AwwVZVByb3NpbWEgTWFpbiBUZXN0IENBMSIwIAYJKoZIhvcNAQkBFhNtYWluY2FA
ZXByb3NpbWEuY29tMB4XDTIzMDYxNDEwNTExMVoXDTMzMDYxMTEwNTExMVowcjEL
MAkGA1UEBhMCRVMxCzAJBgNVBAgMAk1BMREwDwYDVQQKDAhlUHJvc2ltYTEeMBwG
A1UEAwwVRG9tYWluUGFydGljaXBhbnROYW1lMSMwIQYJKoZIhvcNAQkBFhRleGFt
cGxlQGVwcm9zaW1hLmNvbTBZMBMGByqGSM49AgEGCCqGSM49AwEHA0IABF5iwriH
yh4T/1/jXGvBs6IlajGaYwMHe/+F8GfAn2fyLPprE5Xwry2/YBPMgLmufrUynPxK
xmiFN0wzveeHHtejgfQwgfEwCQYDVR0TBAIwADAdBgNVHQ4EFgQUsXy8QUWiV/5M
/QkrIuPfR2b3s5YwgcQGA1UdIwSBvDCBuaGBoKSBnTCBmjELMAkGA1UEBhMCRVMx
CzAJBgNVBAgMAk1BMRQwEgYDVQQHDAtUcmVzIENhbnRvczERMA8GA1UECgwIZVBy
b3NpbWExETAPBgNVBAsMCGVQcm9zaW1hMR4wHAYDVQQDDBVlUHJvc2ltYSBNYWlu
IFRlc3QgQ0ExIjAgBgkqhkiG9w0BCQEWE21haW5jYUBlcHJvc2ltYS5jb22CFC3g
hoRrlPFWEGxmmq6fLzlHthCOMAoGCCqGSM49BAMCA0gAMEUCIQD78Aez7gqfHUt+
F28jTSimm2208B4bfJ/9zMJ+6K8x8wIgaitfcljUCm8CuDmj5j7DyzrkHvg4GYnM
4oD5tDJcM/c=
-----END CERTIFICATE-----
